target datalayout = "e-m:e-p270:32:32-p271:32:32-p272:64:64-i64:64-i128:128-f80:128-n8:16:32:64-S128"
target triple = "x86_64-pc-linux-gnu"

%"struct.cv::utils::trace::details::Region::LocationStaticStorage" = type { ptr, ptr, ptr, i32, i32 }
%"class.cv::utils::trace::details::Region" = type <{ ptr, i32, [4 x i8] }>
%"class.std::__cxx11::basic_string" = type { %"struct.std::__cxx11::basic_string<char>::_Alloc_hider", i64, %union.anon }
%"struct.std::__cxx11::basic_string<char>::_Alloc_hider" = type { ptr }
%union.anon = type { i64, [8 x i8] }

@.str.1 = private unnamed_addr constant [124 x i8] c"generated/home/dtcxzyw/WorkSpace/Projects/compilers/llvm-opt-benchmark/bench/opencv/opencv/modules/core/src/arithm.simd.hpp\00", align 1
@_ZZN2cv3hal13addWeighted8sEPKamS2_mPamiiPvE26__cv_trace_location_fn1826 = internal constant %"struct.cv::utils::trace::details::Region::LocationStaticStorage" { ptr @_ZZN2cv3hal13addWeighted8sEPKamS2_mPamiiPvE32__cv_trace_location_extra_fn1826, ptr @.str.197, ptr @.str.1, i32 1826, i32 1 }, align 8
@.str.198 = private unnamed_addr constant [79 x i8] c"HAL implementation addWeighted8s ==> hal_ni_addWeighted8s returned %d (0x%08x)\00", align 1
@__func__._ZN2cv3hal13addWeighted8sEPKamS2_mPamiiPv = private unnamed_addr constant [14 x i8] c"addWeighted8s\00", align 1

; Function Attrs: mustprogress nounwind uwtable
define linkonce_odr hidden noundef i32 @_Z20hal_ni_addWeighted8sPKamS0_mPamiiPKd(ptr noundef %0, i64 noundef %1, ptr noundef %2, i64 noundef %3, ptr noundef %4, i64 noundef %5, i32 noundef %6, i32 noundef %7, ptr noundef %8) #2 comdat {
  %10 = alloca ptr, align 8
  %11 = alloca i64, align 8
  %12 = alloca ptr, align 8
  %13 = alloca i64, align 8
  %14 = alloca ptr, align 8
  %15 = alloca i64, align 8
  %16 = alloca i32, align 4
  %17 = alloca i32, align 4
  %18 = alloca ptr, align 8
  store ptr %0, ptr %10, align 8
  store i64 %1, ptr %11, align 8
  store ptr %2, ptr %12, align 8
  store i64 %3, ptr %13, align 8
  store ptr %4, ptr %14, align 8
  store i64 %5, ptr %15, align 8
  store i32 %6, ptr %16, align 4
  store i32 %7, ptr %17, align 4
  store ptr %8, ptr %18, align 8
  ret i32 1
}

; Function Attrs: mustprogress uwtable
define void @_ZN2cv3hal13addWeighted8sEPKamS2_mPamiiPv(ptr noundef %0, i64 noundef %1, ptr noundef %2, i64 noundef %3, ptr noundef %4, i64 noundef %5, i32 noundef %6, i32 noundef %7, ptr noundef %8) #0 personality ptr @__gxx_personality_v0 {
  %10 = alloca ptr, align 8
  %11 = alloca i64, align 8
  %12 = alloca ptr, align 8
  %13 = alloca i64, align 8
  %14 = alloca ptr, align 8
  %15 = alloca i64, align 8
  %16 = alloca i32, align 4
  %17 = alloca i32, align 4
  %18 = alloca ptr, align 8
  %19 = alloca %"class.cv::utils::trace::details::Region", align 8
  %20 = alloca i32, align 4
  %21 = alloca ptr, align 8
  %22 = alloca i32, align 4
  %23 = alloca i32, align 4
  %24 = alloca %"class.std::__cxx11::basic_string", align 8
  store ptr %0, ptr %10, align 8
  store i64 %1, ptr %11, align 8
  store ptr %2, ptr %12, align 8
  store i64 %3, ptr %13, align 8
  store ptr %4, ptr %14, align 8
  store i64 %5, ptr %15, align 8
  store i32 %6, ptr %16, align 4
  store i32 %7, ptr %17, align 4
  store ptr %8, ptr %18, align 8
  call void @_ZN2cv5utils5trace7details6RegionC1ERKNS3_21LocationStaticStorageE(ptr noundef nonnull align 8 dereferenceable(12) %19, ptr noundef nonnull align 8 dereferenceable(32) @_ZZN2cv3hal13addWeighted8sEPKamS2_mPamiiPvE26__cv_trace_location_fn1826)
  %25 = load ptr, ptr %10, align 8
  %26 = load i64, ptr %11, align 8
  %27 = load ptr, ptr %12, align 8
  %28 = load i64, ptr %13, align 8
  %29 = load ptr, ptr %14, align 8
  %30 = load i64, ptr %15, align 8
  %31 = load i32, ptr %16, align 4
  %32 = load i32, ptr %17, align 4
  %33 = load ptr, ptr %18, align 8
  %34 = invoke noundef i32 @_Z20hal_ni_addWeighted8sPKamS0_mPamiiPKd(ptr noundef %25, i64 noundef %26, ptr noundef %27, i64 noundef %28, ptr noundef %29, i64 noundef %30, i32 noundef %31, i32 noundef %32, ptr noundef %33)
          to label %35 unwind label %39

35:                                               ; preds = %9
  store i32 %34, ptr %20, align 4
  %36 = load i32, ptr %20, align 4
  %37 = icmp eq i32 %36, 0
  br i1 %37, label %38, label %43

38:                                               ; preds = %35
  store i32 1, ptr %23, align 4
  br label %67

39:                                               ; preds = %56, %46, %9
  %40 = landingpad { ptr, i32 }
          cleanup
  %41 = extractvalue { ptr, i32 } %40, 0
  store ptr %41, ptr %21, align 8
  %42 = extractvalue { ptr, i32 } %40, 1
  store i32 %42, ptr %22, align 4
  br label %68

43:                                               ; preds = %35
  %44 = load i32, ptr %20, align 4
  %45 = icmp ne i32 %44, 1
  br i1 %45, label %46, label %55

46:                                               ; preds = %43
  %47 = load i32, ptr %20, align 4
  %48 = load i32, ptr %20, align 4
  invoke void (ptr, ptr, ...) @_ZN2cv6formatB5cxx11EPKcz(ptr dead_on_unwind writable sret(%"class.std::__cxx11::basic_string") align 8 %24, ptr noundef @.str.198, i32 noundef %47, i32 noundef %48)
          to label %49 unwind label %39

49:                                               ; preds = %46
  invoke void @_ZN2cv5errorEiRKNSt7__cxx1112basic_stringIcSt11char_traitsIcESaIcEEEPKcS9_i(i32 noundef -3, ptr noundef nonnull align 8 dereferenceable(32) %24, ptr noundef @__func__._ZN2cv3hal13addWeighted8sEPKamS2_mPamiiPv, ptr noundef @.str.1, i32 noundef 1826) #11
          to label %50 unwind label %51

50:                                               ; preds = %49
  unreachable

51:                                               ; preds = %49
  %52 = landingpad { ptr, i32 }
          cleanup
  %53 = extractvalue { ptr, i32 } %52, 0
  store ptr %53, ptr %21, align 8
  %54 = extractvalue { ptr, i32 } %52, 1
  store i32 %54, ptr %22, align 4
  call void @_ZNSt7__cxx1112basic_stringIcSt11char_traitsIcESaIcEED1Ev(ptr noundef nonnull align 8 dereferenceable(32) %24) #9
  br label %68

55:                                               ; preds = %43
  br label %56

56:                                               ; preds = %55
  %57 = load ptr, ptr %10, align 8
  %58 = load i64, ptr %11, align 8
  %59 = load ptr, ptr %12, align 8
  %60 = load i64, ptr %13, align 8
  %61 = load ptr, ptr %14, align 8
  %62 = load i64, ptr %15, align 8
  %63 = load i32, ptr %16, align 4
  %64 = load i32, ptr %17, align 4
  %65 = load ptr, ptr %18, align 8
  invoke void @_ZN2cv3hal12cpu_baseline13addWeighted8sEPKamS3_mPamiiPKd(ptr noundef %57, i64 noundef %58, ptr noundef %59, i64 noundef %60, ptr noundef %61, i64 noundef %62, i32 noundef %63, i32 noundef %64, ptr noundef %65)
          to label %66 unwind label %39

66:                                               ; preds = %56
  store i32 1, ptr %23, align 4
  br label %67

67:                                               ; preds = %66, %38
  call void @_ZN2cv5utils5trace7details6RegionD2Ev(ptr noundef nonnull align 8 dereferenceable(12) %19) #9
  ret void

68:                                               ; preds = %51, %39
  call void @_ZN2cv5utils5trace7details6RegionD2Ev(ptr noundef nonnull align 8 dereferenceable(12) %19) #9
  br label %69

69:                                               ; preds = %68
  %70 = load ptr, ptr %21, align 8
  %71 = load i32, ptr %22, align 4
  %72 = insertvalue { ptr, i32 } poison, ptr %70, 0
  %73 = insertvalue { ptr, i32 } %72, i32 %71, 1
  resume { ptr, i32 } %73
}